; Function Attrs: mustprogress uwtable
define internal fastcc noundef i32 @_ZN12_GLOBAL__N_123InvokeParseAbslOnlyImplILi2EEEN4absl14flags_internal8HelpModeERAT__PKc(ptr noundef nonnull align 8 dereferenceable(16) %0) unnamed_addr #3 personality ptr @__gxx_personality_v0 {
  %2 = alloca %"class.std::vector", align 8
  %3 = alloca %"class.std::vector.166", align 8
  call void @llvm.lifetime.start.p0(i64 24, ptr nonnull %2) #33
  call void @llvm.memset.p0.i64(ptr noundef nonnull align 8 dereferenceable(24) %2, i8 0, i64 24, i1 false)
  call void @llvm.lifetime.start.p0(i64 24, ptr nonnull %3) #33
  call void @llvm.memset.p0.i64(ptr noundef nonnull align 8 dereferenceable(24) %3, i8 0, i64 24, i1 false)
  %4 = invoke noundef i32 @_ZN4absl14flags_internal24ParseAbseilFlagsOnlyImplEiPPcRSt6vectorIS1_SaIS1_EERS3_INS_16UnrecognizedFlagESaIS7_EENS0_16UsageFlagsActionE(i32 noundef 2, ptr noundef nonnull %0, ptr noundef nonnull align 8 dereferenceable(24) %2, ptr noundef nonnull align 8 dereferenceable(24) %3, i32 noundef 0)
          to label %5 unwind label %33

5:                                                ; preds = %1
  %6 = load ptr, ptr %3, align 8, !tbaa !394
  %7 = getelementptr inbounds nuw i8, ptr %3, i64 8
  %8 = load ptr, ptr %7, align 8, !tbaa !397
  %.not4.i.i.i.i = icmp eq ptr %6, %8
  br i1 %.not4.i.i.i.i, label %_ZSt8_DestroyIPN4absl16UnrecognizedFlagES1_EvT_S3_RSaIT0_E.exit.i, label %.lr.ph.i.i.i.i

.lr.ph.i.i.i.i:                                   ; preds = %5, %_ZSt8_DestroyIN4absl16UnrecognizedFlagEEvPT_.exit.i.i.i.i
  %.05.i.i.i.i = phi ptr [ %18, %_ZSt8_DestroyIN4absl16UnrecognizedFlagEEvPT_.exit.i.i.i.i ], [ %6, %5 ]
  %9 = getelementptr inbounds nuw i8, ptr %.05.i.i.i.i, i64 8
  %10 = load ptr, ptr %9, align 8, !tbaa !16
  %11 = getelementptr inbounds nuw i8, ptr %.05.i.i.i.i, i64 24
  %12 = icmp eq ptr %10, %11
  br i1 %12, label %_ZNKSt7__cxx1112basic_stringIcSt11char_traitsIcESaIcEE11_M_is_localEv.exit.thread.i.i.i.i.i.i.i.i, label %_ZNKSt7__cxx1112basic_stringIcSt11char_traitsIcESaIcEE11_M_is_localEv.exit.i.i.i.i.i.i.i.i

_ZNKSt7__cxx1112basic_stringIcSt11char_traitsIcESaIcEE11_M_is_localEv.exit.thread.i.i.i.i.i.i.i.i: ; preds = %.lr.ph.i.i.i.i
  %13 = getelementptr inbounds nuw i8, ptr %.05.i.i.i.i, i64 16
  %14 = load i64, ptr %13, align 8, !tbaa !19
  %15 = icmp ult i64 %14, 16
  call void @llvm.assume(i1 %15)
  br label %_ZSt8_DestroyIN4absl16UnrecognizedFlagEEvPT_.exit.i.i.i.i

_ZNKSt7__cxx1112basic_stringIcSt11char_traitsIcESaIcEE11_M_is_localEv.exit.i.i.i.i.i.i.i.i: ; preds = %.lr.ph.i.i.i.i
  %16 = load i64, ptr %11, align 8, !tbaa !21
  %17 = add i64 %16, 1
  call void @_ZdlPvm(ptr noundef %10, i64 noundef %17) #32
  br label %_ZSt8_DestroyIN4absl16UnrecognizedFlagEEvPT_.exit.i.i.i.i

_ZSt8_DestroyIN4absl16UnrecognizedFlagEEvPT_.exit.i.i.i.i: ; preds = %_ZNKSt7__cxx1112basic_stringIcSt11char_traitsIcESaIcEE11_M_is_localEv.exit.i.i.i.i.i.i.i.i, %_ZNKSt7__cxx1112basic_stringIcSt11char_traitsIcESaIcEE11_M_is_localEv.exit.thread.i.i.i.i.i.i.i.i
  %18 = getelementptr inbounds nuw i8, ptr %.05.i.i.i.i, i64 40
  %.not.i.i.i.i = icmp eq ptr %18, %8
  br i1 %.not.i.i.i.i, label %_ZSt8_DestroyIPN4absl16UnrecognizedFlagES1_EvT_S3_RSaIT0_E.exitthread-pre-split.i, label %.lr.ph.i.i.i.i, !llvm.loop !398

_ZSt8_DestroyIPN4absl16UnrecognizedFlagES1_EvT_S3_RSaIT0_E.exitthread-pre-split.i: ; preds = %_ZSt8_DestroyIN4absl16UnrecognizedFlagEEvPT_.exit.i.i.i.i
  %.pr.i = load ptr, ptr %3, align 8, !tbaa !394
  br label %_ZSt8_DestroyIPN4absl16UnrecognizedFlagES1_EvT_S3_RSaIT0_E.exit.i

_ZSt8_DestroyIPN4absl16UnrecognizedFlagES1_EvT_S3_RSaIT0_E.exit.i: ; preds = %_ZSt8_DestroyIPN4absl16UnrecognizedFlagES1_EvT_S3_RSaIT0_E.exitthread-pre-split.i, %5
  %19 = phi ptr [ %.pr.i, %_ZSt8_DestroyIPN4absl16UnrecognizedFlagES1_EvT_S3_RSaIT0_E.exitthread-pre-split.i ], [ %6, %5 ]
  %.not.i.i.i = icmp eq ptr %19, null
  br i1 %.not.i.i.i, label %_ZNSt6vectorIN4absl16UnrecognizedFlagESaIS1_EED2Ev.exit, label %20

20:                                               ; preds = %_ZSt8_DestroyIPN4absl16UnrecognizedFlagES1_EvT_S3_RSaIT0_E.exit.i
  %21 = getelementptr inbounds nuw i8, ptr %3, i64 16
  %22 = load ptr, ptr %21, align 8, !tbaa !399
  %23 = ptrtoint ptr %22 to i64
  %24 = ptrtoint ptr %19 to i64
  %25 = sub i64 %23, %24
  call void @_ZdlPvm(ptr noundef nonnull %19, i64 noundef %25) #32
  br label %_ZNSt6vectorIN4absl16UnrecognizedFlagESaIS1_EED2Ev.exit

_ZNSt6vectorIN4absl16UnrecognizedFlagESaIS1_EED2Ev.exit: ; preds = %_ZSt8_DestroyIPN4absl16UnrecognizedFlagES1_EvT_S3_RSaIT0_E.exit.i, %20
  call void @llvm.lifetime.end.p0(i64 24, ptr nonnull %3) #33
  %26 = load ptr, ptr %2, align 8, !tbaa !54
  %.not.i.i.i2 = icmp eq ptr %26, null
  br i1 %.not.i.i.i2, label %_ZNSt6vectorIPcSaIS0_EED2Ev.exit, label %27

27:                                               ; preds = %_ZNSt6vectorIN4absl16UnrecognizedFlagESaIS1_EED2Ev.exit
  %28 = getelementptr inbounds nuw i8, ptr %2, i64 16
  %29 = load ptr, ptr %28, align 8, !tbaa !67
  %30 = ptrtoint ptr %29 to i64
  %31 = ptrtoint ptr %26 to i64
  %32 = sub i64 %30, %31
  call void @_ZdlPvm(ptr noundef nonnull %26, i64 noundef %32) #32
  br label %_ZNSt6vectorIPcSaIS0_EED2Ev.exit

_ZNSt6vectorIPcSaIS0_EED2Ev.exit:                 ; preds = %_ZNSt6vectorIN4absl16UnrecognizedFlagESaIS1_EED2Ev.exit, %27
  call void @llvm.lifetime.end.p0(i64 24, ptr nonnull %2) #33
  ret i32 %4

33:                                               ; preds = %1
  %34 = landingpad { ptr, i32 }
          cleanup
  call void @_ZNSt6vectorIN4absl16UnrecognizedFlagESaIS1_EED2Ev(ptr noundef nonnull align 8 dereferenceable(24) %3) #33
  call void @llvm.lifetime.end.p0(i64 24, ptr nonnull %3) #33
  %35 = load ptr, ptr %2, align 8, !tbaa !54
  %.not.i.i.i3 = icmp eq ptr %35, null
  br i1 %.not.i.i.i3, label %_ZNSt6vectorIPcSaIS0_EED2Ev.exit4, label %36

36:                                               ; preds = %33
  %37 = getelementptr inbounds nuw i8, ptr %2, i64 16
  %38 = load ptr, ptr %37, align 8, !tbaa !67
  %39 = ptrtoint ptr %38 to i64
  %40 = ptrtoint ptr %35 to i64
  %41 = sub i64 %39, %40
  call void @_ZdlPvm(ptr noundef nonnull %35, i64 noundef %41) #32
  br label %_ZNSt6vectorIPcSaIS0_EED2Ev.exit4

_ZNSt6vectorIPcSaIS0_EED2Ev.exit4:                ; preds = %33, %36
  call void @llvm.lifetime.end.p0(i64 24, ptr nonnull %2) #33
  resume { ptr, i32 } %34
}